target datalayout = "e-m:e-p270:32:32-p271:32:32-p272:64:64-i64:64-i128:128-f80:128-n8:16:32:64-S128"
target triple = "x86_64-pc-linux-gnu"

%struct.darktable_t = type { %struct.dt_codepath_t, i32, i32, ptr, ptr, ptr, ptr, ptr, ptr, ptr, ptr, ptr, ptr, ptr, ptr, ptr, ptr, ptr, ptr, ptr, ptr, ptr, ptr, ptr, ptr, ptr, ptr, ptr, ptr, ptr, [64 x %struct.dt_pthread_mutex_t], %struct.dt_pthread_mutex_t, %struct.dt_pthread_mutex_t, %struct.dt_pthread_mutex_t, %struct.dt_pthread_mutex_t, %struct.dt_pthread_mutex_t, ptr, ptr, ptr, ptr, ptr, ptr, ptr, ptr, ptr, ptr, ptr, ptr, ptr, %struct.dt_lua_state_t, ptr, double, ptr, i32, [47 x i32], i32, i32, ptr, ptr, %struct.dt_sys_resources_t, %struct.dt_backthumb_t, %struct.dt_gimp_t }
%struct.dt_codepath_t = type { i8, [3 x i8] }
%struct.dt_pthread_mutex_t = type { %union.pthread_mutex_t }
%union.pthread_mutex_t = type { %struct.__pthread_mutex_s }
%struct.__pthread_mutex_s = type { i32, i32, i32, i32, i32, i16, i16, %struct.__pthread_internal_list }
%struct.__pthread_internal_list = type { ptr, ptr }
%struct.dt_lua_state_t = type { i32 }
%struct.dt_sys_resources_t = type { i64, i64, ptr, ptr, i32 }
%struct.dt_backthumb_t = type { double, double, i32, i32, i32, i32 }
%struct.dt_gimp_t = type { i32, ptr, ptr, i32, i32 }

@darktable = external global %struct.darktable_t, align 8

; Function Attrs: nounwind uwtable
define i32 @dt_tag_attach_images(i32 noundef %0, ptr noundef %1, i32 noundef %2) #0 {
  %4 = alloca i32, align 4
  %5 = alloca i32, align 4
  %6 = alloca ptr, align 8
  %7 = alloca i32, align 4
  %8 = alloca ptr, align 8
  %9 = alloca ptr, align 8
  %10 = alloca i32, align 4
  store i32 %0, ptr %5, align 4, !tbaa !52
  store ptr %1, ptr %6, align 8, !tbaa !59
  store i32 %2, ptr %7, align 4, !tbaa !52
  %11 = load ptr, ptr %6, align 8, !tbaa !59
  %12 = icmp ne ptr %11, null
  br i1 %12, label %14, label %13

13:                                               ; preds = %3
  store i32 0, ptr %4, align 4
  br label %38

14:                                               ; preds = %3
  call void @llvm.lifetime.start.p0(i64 8, ptr %8) #8
  store ptr null, ptr %8, align 8, !tbaa !59
  call void @llvm.lifetime.start.p0(i64 8, ptr %9) #8
  store ptr null, ptr %9, align 8, !tbaa !59
  %15 = load ptr, ptr %9, align 8, !tbaa !59
  %16 = load i32, ptr %5, align 4, !tbaa !52
  %17 = zext i32 %16 to i64
  %18 = inttoptr i64 %17 to ptr
  %19 = call ptr @g_list_prepend(ptr noundef %15, ptr noundef %18)
  store ptr %19, ptr %9, align 8, !tbaa !59
  %20 = load i32, ptr %7, align 4, !tbaa !52
  %21 = icmp ne i32 %20, 0
  br i1 %21, label %22, label %24

22:                                               ; preds = %14
  %23 = load ptr, ptr getelementptr inbounds nuw (%struct.darktable_t, ptr @darktable, i32 0, i32 27), align 8, !tbaa !65
  call void @dt_undo_start_group(ptr noundef %23, i32 noundef 32)
  br label %24

24:                                               ; preds = %22, %14
  call void @llvm.lifetime.start.p0(i64 4, ptr %10) #8
  %25 = load ptr, ptr %9, align 8, !tbaa !59
  %26 = load ptr, ptr %6, align 8, !tbaa !59
  %27 = load i32, ptr %7, align 4, !tbaa !52
  %28 = call i32 @_tag_execute(ptr noundef %25, ptr noundef %26, ptr noundef %8, i32 noundef %27, i32 noundef 0)
  store i32 %28, ptr %10, align 4, !tbaa !52
  %29 = load ptr, ptr %9, align 8, !tbaa !59
  call void @g_list_free(ptr noundef %29)
  %30 = load i32, ptr %7, align 4, !tbaa !52
  %31 = icmp ne i32 %30, 0
  br i1 %31, label %32, label %36

32:                                               ; preds = %24
  %33 = load ptr, ptr getelementptr inbounds nuw (%struct.darktable_t, ptr @darktable, i32 0, i32 27), align 8, !tbaa !65
  %34 = load ptr, ptr %8, align 8, !tbaa !59
  call void @dt_undo_record(ptr noundef %33, ptr noundef null, i32 noundef 32, ptr noundef %34, ptr noundef @_pop_undo, ptr noundef @_tags_undo_data_free)
  %35 = load ptr, ptr getelementptr inbounds nuw (%struct.darktable_t, ptr @darktable, i32 0, i32 27), align 8, !tbaa !65
  call void @dt_undo_end_group(ptr noundef %35)
  br label %36

36:                                               ; preds = %32, %24
  %37 = load i32, ptr %10, align 4, !tbaa !52
  store i32 %37, ptr %4, align 4
  call void @llvm.lifetime.end.p0(i64 4, ptr %10) #8
  call void @llvm.lifetime.end.p0(i64 8, ptr %9) #8
  call void @llvm.lifetime.end.p0(i64 8, ptr %8) #8
  br label %38

38:                                               ; preds = %36, %13
  %39 = load i32, ptr %4, align 4
  ret i32 %39
}